; ModuleID = 'source-C-CXX/29/1391.cpp'
source_filename = "source-C-CXX/29/1391.cpp"
target datalayout = "e-m:e-p270:32:32-p271:32:32-p272:64:64-i64:64-f80:128-n8:16:32:64-S128"
target triple = "x86_64-pc-linux-gnu"

%"class.std::ios_base::Init" = type { i8 }
%"class.std::basic_istream" = type { i32 (...)**, i64, %"class.std::basic_ios" }
%"class.std::basic_ios" = type { %"class.std::ios_base", %"class.std::basic_ostream"*, i8, i8, %"class.std::basic_streambuf"*, %"class.std::ctype"*, %"class.std::num_put"*, %"class.std::num_get"* }
%"class.std::ios_base" = type { i32 (...)**, i64, i64, i32, i32, i32, %"struct.std::ios_base::_Callback_list"*, %"struct.std::ios_base::_Words", [8 x %"struct.std::ios_base::_Words"], i32, %"struct.std::ios_base::_Words"*, %"class.std::locale" }
%"struct.std::ios_base::_Callback_list" = type { %"struct.std::ios_base::_Callback_list"*, void (i32, %"class.std::ios_base"*, i32)*, i32, i32 }
%"struct.std::ios_base::_Words" = type { i8*, i64 }
%"class.std::locale" = type { %"class.std::locale::_Impl"* }
%"class.std::locale::_Impl" = type { i32, %"class.std::locale::facet"**, i64, %"class.std::locale::facet"**, i8** }
%"class.std::locale::facet" = type <{ i32 (...)**, i32, [4 x i8] }>
%"class.std::basic_ostream" = type { i32 (...)**, %"class.std::basic_ios" }
%"class.std::basic_streambuf" = type { i32 (...)**, i8*, i8*, i8*, i8*, i8*, i8*, %"class.std::locale" }
%"class.std::ctype" = type <{ %"class.std::locale::facet.base", [4 x i8], %struct.__locale_struct*, i8, [7 x i8], i32*, i32*, i16*, i8, [256 x i8], [256 x i8], i8, [6 x i8] }>
%"class.std::locale::facet.base" = type <{ i32 (...)**, i32 }>
%struct.__locale_struct = type { [13 x %struct.__locale_data*], i16*, i32*, i32*, [13 x i8*] }
%struct.__locale_data = type opaque
%"class.std::num_put" = type { %"class.std::locale::facet.base", [4 x i8] }
%"class.std::num_get" = type { %"class.std::locale::facet.base", [4 x i8] }

@_ZStL8__ioinit = internal global %"class.std::ios_base::Init" zeroinitializer, align 1
@__dso_handle = external hidden global i8
@_ZSt3cin = external global %"class.std::basic_istream", align 8
@_ZSt4cout = external global %"class.std::basic_ostream", align 8
@.str = private unnamed_addr constant [25 x i8] c"error,please input again\00", align 1
@llvm.global_ctors = appending global [1 x { i32, void ()*, i8* }] [{ i32, void ()*, i8* } { i32 65535, void ()* @_GLOBAL__sub_I_1391.cpp, i8* null }]

declare void @_ZNSt8ios_base4InitC1Ev(%"class.std::ios_base::Init"* nonnull align 1 dereferenceable(1)) unnamed_addr #0

; Function Attrs: nounwind
declare void @_ZNSt8ios_base4InitD1Ev(%"class.std::ios_base::Init"* nonnull align 1 dereferenceable(1)) unnamed_addr #1

; Function Attrs: nofree nounwind
declare i32 @__cxa_atexit(void (i8*)*, i8*, i8*) local_unnamed_addr #2

; Function Attrs: mustprogress norecurse sspstrong uwtable
define dso_local i32 @main() local_unnamed_addr #3 {
  %1 = alloca i32, align 4
  %2 = bitcast i32* %1 to i8*
  call void @llvm.lifetime.start.p0i8(i64 4, i8* nonnull %2) #8
  %3 = call nonnull align 8 dereferenceable(16) %"class.std::basic_istream"* @_ZNSirsERi(%"class.std::basic_istream"* nonnull align 8 dereferenceable(16) @_ZSt3cin, i32* nonnull align 4 dereferenceable(4) %1)
  %4 = load i32, i32* %1, align 4, !tbaa !5
  %5 = icmp sgt i32 %4, 99
  br i1 %5, label %52, label %6

6:                                                ; preds = %77, %0
  %7 = phi i32 [ %4, %0 ], [ %82, %77 ]
  %8 = icmp slt i32 %7, 1
  br i1 %8, label %100, label %9

9:                                                ; preds = %6
  %10 = icmp ult i32 %7, 8
  br i1 %10, label %49, label %11

11:                                               ; preds = %9
  %12 = and i32 %7, -8
  %13 = or i32 %12, 1
  br label %14

14:                                               ; preds = %14, %11
  %15 = phi i32 [ 0, %11 ], [ %42, %14 ]
  %16 = phi <4 x i32> [ zeroinitializer, %11 ], [ %40, %14 ]
  %17 = phi <4 x i32> [ zeroinitializer, %11 ], [ %41, %14 ]
  %18 = phi <4 x i32> [ <i32 1, i32 2, i32 3, i32 4>, %11 ], [ %43, %14 ]
  %19 = add <4 x i32> %18, <i32 4, i32 4, i32 4, i32 4>
  %20 = urem <4 x i32> %18, <i32 10, i32 10, i32 10, i32 10>
  %21 = urem <4 x i32> %19, <i32 10, i32 10, i32 10, i32 10>
  %22 = urem <4 x i32> %18, <i32 7, i32 7, i32 7, i32 7>
  %23 = urem <4 x i32> %19, <i32 7, i32 7, i32 7, i32 7>
  %24 = icmp eq <4 x i32> %22, zeroinitializer
  %25 = icmp eq <4 x i32> %23, zeroinitializer
  %26 = add nsw <4 x i32> %18, <i32 -70, i32 -70, i32 -70, i32 -70>
  %27 = add <4 x i32> %18, <i32 -66, i32 -66, i32 -66, i32 -66>
  %28 = icmp ult <4 x i32> %26, <i32 10, i32 10, i32 10, i32 10>
  %29 = icmp ult <4 x i32> %27, <i32 10, i32 10, i32 10, i32 10>
  %30 = select <4 x i1> %24, <4 x i1> <i1 true, i1 true, i1 true, i1 true>, <4 x i1> %28
  %31 = select <4 x i1> %25, <4 x i1> <i1 true, i1 true, i1 true, i1 true>, <4 x i1> %29
  %32 = icmp eq <4 x i32> %20, <i32 7, i32 7, i32 7, i32 7>
  %33 = icmp eq <4 x i32> %21, <i32 7, i32 7, i32 7, i32 7>
  %34 = select <4 x i1> %30, <4 x i1> <i1 true, i1 true, i1 true, i1 true>, <4 x i1> %32
  %35 = select <4 x i1> %31, <4 x i1> <i1 true, i1 true, i1 true, i1 true>, <4 x i1> %33
  %36 = mul nsw <4 x i32> %18, %18
  %37 = mul nsw <4 x i32> %19, %19
  %38 = select <4 x i1> %34, <4 x i32> zeroinitializer, <4 x i32> %36
  %39 = select <4 x i1> %35, <4 x i32> zeroinitializer, <4 x i32> %37
  %40 = add <4 x i32> %38, %16
  %41 = add <4 x i32> %39, %17
  %42 = add nuw i32 %15, 8
  %43 = add <4 x i32> %18, <i32 8, i32 8, i32 8, i32 8>
  %44 = icmp eq i32 %42, %12
  br i1 %44, label %45, label %14, !llvm.loop !9

45:                                               ; preds = %14
  %46 = add <4 x i32> %41, %40
  %47 = call i32 @llvm.vector.reduce.add.v4i32(<4 x i32> %46)
  %48 = icmp eq i32 %7, %12
  br i1 %48, label %100, label %49

49:                                               ; preds = %9, %45
  %50 = phi i32 [ 0, %9 ], [ %47, %45 ]
  %51 = phi i32 [ 1, %9 ], [ %13, %45 ]
  br label %84

52:                                               ; preds = %0, %77
  %53 = call nonnull align 8 dereferenceable(8) %"class.std::basic_ostream"* @_ZSt16__ostream_insertIcSt11char_traitsIcEERSt13basic_ostreamIT_T0_ES6_PKS3_l(%"class.std::basic_ostream"* nonnull align 8 dereferenceable(8) @_ZSt4cout, i8* nonnull getelementptr inbounds ([25 x i8], [25 x i8]* @.str, i64 0, i64 0), i64 24)
  %54 = load i8*, i8** bitcast (%"class.std::basic_ostream"* @_ZSt4cout to i8**), align 8, !tbaa !12
  %55 = getelementptr i8, i8* %54, i64 -24
  %56 = bitcast i8* %55 to i64*
  %57 = load i64, i64* %56, align 8
  %58 = add nsw i64 %57, 240
  %59 = getelementptr inbounds i8, i8* bitcast (%"class.std::basic_ostream"* @_ZSt4cout to i8*), i64 %58
  %60 = bitcast i8* %59 to %"class.std::ctype"**
  %61 = load %"class.std::ctype"*, %"class.std::ctype"** %60, align 8, !tbaa !14
  %62 = icmp eq %"class.std::ctype"* %61, null
  br i1 %62, label %63, label %64

63:                                               ; preds = %52
  call void @_ZSt16__throw_bad_castv() #9
  unreachable

64:                                               ; preds = %52
  %65 = getelementptr inbounds %"class.std::ctype", %"class.std::ctype"* %61, i64 0, i32 8
  %66 = load i8, i8* %65, align 8, !tbaa !18
  %67 = icmp eq i8 %66, 0
  br i1 %67, label %71, label %68

68:                                               ; preds = %64
  %69 = getelementptr inbounds %"class.std::ctype", %"class.std::ctype"* %61, i64 0, i32 9, i64 10
  %70 = load i8, i8* %69, align 1, !tbaa !20
  br label %77

71:                                               ; preds = %64
  call void @_ZNKSt5ctypeIcE13_M_widen_initEv(%"class.std::ctype"* nonnull align 8 dereferenceable(570) %61)
  %72 = bitcast %"class.std::ctype"* %61 to i8 (%"class.std::ctype"*, i8)***
  %73 = load i8 (%"class.std::ctype"*, i8)**, i8 (%"class.std::ctype"*, i8)*** %72, align 8, !tbaa !12
  %74 = getelementptr inbounds i8 (%"class.std::ctype"*, i8)*, i8 (%"class.std::ctype"*, i8)** %73, i64 6
  %75 = load i8 (%"class.std::ctype"*, i8)*, i8 (%"class.std::ctype"*, i8)** %74, align 8
  %76 = call signext i8 %75(%"class.std::ctype"* nonnull align 8 dereferenceable(570) %61, i8 signext 10)
  br label %77

77:                                               ; preds = %68, %71
  %78 = phi i8 [ %70, %68 ], [ %76, %71 ]
  %79 = call nonnull align 8 dereferenceable(8) %"class.std::basic_ostream"* @_ZNSo3putEc(%"class.std::basic_ostream"* nonnull align 8 dereferenceable(8) @_ZSt4cout, i8 signext %78)
  %80 = call nonnull align 8 dereferenceable(8) %"class.std::basic_ostream"* @_ZNSo5flushEv(%"class.std::basic_ostream"* nonnull align 8 dereferenceable(8) %79)
  %81 = call nonnull align 8 dereferenceable(16) %"class.std::basic_istream"* @_ZNSirsERi(%"class.std::basic_istream"* nonnull align 8 dereferenceable(16) @_ZSt3cin, i32* nonnull align 4 dereferenceable(4) %1)
  %82 = load i32, i32* %1, align 4, !tbaa !5
  %83 = icmp sgt i32 %82, 99
  br i1 %83, label %52, label %6, !llvm.loop !21

84:                                               ; preds = %49, %84
  %85 = phi i32 [ %97, %84 ], [ %50, %49 ]
  %86 = phi i32 [ %98, %84 ], [ %51, %49 ]
  %87 = urem i32 %86, 10
  %88 = urem i32 %86, 7
  %89 = icmp eq i32 %88, 0
  %90 = add nsw i32 %86, -70
  %91 = icmp ult i32 %90, 10
  %92 = select i1 %89, i1 true, i1 %91
  %93 = icmp eq i32 %87, 7
  %94 = select i1 %92, i1 true, i1 %93
  %95 = mul nsw i32 %86, %86
  %96 = select i1 %94, i32 0, i32 %95
  %97 = add nuw nsw i32 %96, %85
  %98 = add nuw i32 %86, 1
  %99 = icmp eq i32 %86, %7
  br i1 %99, label %100, label %84, !llvm.loop !22

100:                                              ; preds = %84, %45, %6
  %101 = phi i32 [ 0, %6 ], [ %47, %45 ], [ %97, %84 ]
  %102 = call nonnull align 8 dereferenceable(8) %"class.std::basic_ostream"* @_ZNSolsEi(%"class.std::basic_ostream"* nonnull align 8 dereferenceable(8) @_ZSt4cout, i32 %101)
  %103 = bitcast %"class.std::basic_ostream"* %102 to i8**
  %104 = load i8*, i8** %103, align 8, !tbaa !12
  %105 = getelementptr i8, i8* %104, i64 -24
  %106 = bitcast i8* %105 to i64*
  %107 = load i64, i64* %106, align 8
  %108 = bitcast %"class.std::basic_ostream"* %102 to i8*
  %109 = add nsw i64 %107, 240
  %110 = getelementptr inbounds i8, i8* %108, i64 %109
  %111 = bitcast i8* %110 to %"class.std::ctype"**
  %112 = load %"class.std::ctype"*, %"class.std::ctype"** %111, align 8, !tbaa !14
  %113 = icmp eq %"class.std::ctype"* %112, null
  br i1 %113, label %114, label %115

114:                                              ; preds = %100
  call void @_ZSt16__throw_bad_castv() #9
  unreachable

115:                                              ; preds = %100
  %116 = getelementptr inbounds %"class.std::ctype", %"class.std::ctype"* %112, i64 0, i32 8
  %117 = load i8, i8* %116, align 8, !tbaa !18
  %118 = icmp eq i8 %117, 0
  br i1 %118, label %122, label %119

119:                                              ; preds = %115
  %120 = getelementptr inbounds %"class.std::ctype", %"class.std::ctype"* %112, i64 0, i32 9, i64 10
  %121 = load i8, i8* %120, align 1, !tbaa !20
  br label %128

122:                                              ; preds = %115
  call void @_ZNKSt5ctypeIcE13_M_widen_initEv(%"class.std::ctype"* nonnull align 8 dereferenceable(570) %112)
  %123 = bitcast %"class.std::ctype"* %112 to i8 (%"class.std::ctype"*, i8)***
  %124 = load i8 (%"class.std::ctype"*, i8)**, i8 (%"class.std::ctype"*, i8)*** %123, align 8, !tbaa !12
  %125 = getelementptr inbounds i8 (%"class.std::ctype"*, i8)*, i8 (%"class.std::ctype"*, i8)** %124, i64 6
  %126 = load i8 (%"class.std::ctype"*, i8)*, i8 (%"class.std::ctype"*, i8)** %125, align 8
  %127 = call signext i8 %126(%"class.std::ctype"* nonnull align 8 dereferenceable(570) %112, i8 signext 10)
  br label %128

128:                                              ; preds = %119, %122
  %129 = phi i8 [ %121, %119 ], [ %127, %122 ]
  %130 = call nonnull align 8 dereferenceable(8) %"class.std::basic_ostream"* @_ZNSo3putEc(%"class.std::basic_ostream"* nonnull align 8 dereferenceable(8) %102, i8 signext %129)
  %131 = call nonnull align 8 dereferenceable(8) %"class.std::basic_ostream"* @_ZNSo5flushEv(%"class.std::basic_ostream"* nonnull align 8 dereferenceable(8) %130)
  call void @llvm.lifetime.end.p0i8(i64 4, i8* nonnull %2) #8
  ret i32 0
}

; Function Attrs: argmemonly mustprogress nofree nosync nounwind willreturn
declare void @llvm.lifetime.start.p0i8(i64 immarg, i8* nocapture) #4

declare nonnull align 8 dereferenceable(16) %"class.std::basic_istream"* @_ZNSirsERi(%"class.std::basic_istream"* nonnull align 8 dereferenceable(16), i32* nonnull align 4 dereferenceable(4)) local_unnamed_addr #0

declare nonnull align 8 dereferenceable(8) %"class.std::basic_ostream"* @_ZNSolsEi(%"class.std::basic_ostream"* nonnull align 8 dereferenceable(8), i32) local_unnamed_addr #0

; Function Attrs: argmemonly mustprogress nofree nosync nounwind willreturn
declare void @llvm.lifetime.end.p0i8(i64 immarg, i8* nocapture) #4

declare nonnull align 8 dereferenceable(8) %"class.std::basic_ostream"* @_ZSt16__ostream_insertIcSt11char_traitsIcEERSt13basic_ostreamIT_T0_ES6_PKS3_l(%"class.std::basic_ostream"* nonnull align 8 dereferenceable(8), i8*, i64) local_unnamed_addr #0

declare nonnull align 8 dereferenceable(8) %"class.std::basic_ostream"* @_ZNSo3putEc(%"class.std::basic_ostream"* nonnull align 8 dereferenceable(8), i8 signext) local_unnamed_addr #0

declare nonnull align 8 dereferenceable(8) %"class.std::basic_ostream"* @_ZNSo5flushEv(%"class.std::basic_ostream"* nonnull align 8 dereferenceable(8)) local_unnamed_addr #0

; Function Attrs: noreturn
declare void @_ZSt16__throw_bad_castv() local_unnamed_addr #5

declare void @_ZNKSt5ctypeIcE13_M_widen_initEv(%"class.std::ctype"* nonnull align 8 dereferenceable(570)) local_unnamed_addr #0

; Function Attrs: sspstrong uwtable
define internal void @_GLOBAL__sub_I_1391.cpp() #6 section ".text.startup" {
  tail call void @_ZNSt8ios_base4InitC1Ev(%"class.std::ios_base::Init"* nonnull align 1 dereferenceable(1) @_ZStL8__ioinit)
  %1 = tail call i32 @__cxa_atexit(void (i8*)* bitcast (void (%"class.std::ios_base::Init"*)* @_ZNSt8ios_base4InitD1Ev to void (i8*)*), i8* getelementptr inbounds (%"class.std::ios_base::Init", %"class.std::ios_base::Init"* @_ZStL8__ioinit, i64 0, i32 0), i8* nonnull @__dso_handle) #8
  ret void
}

; Function Attrs: nofree nosync nounwind readnone willreturn
declare i32 @llvm.vector.reduce.add.v4i32(<4 x i32>) #7


!llvm.module.flags = !{!0, !1, !2, !3}
!llvm.ident = !{!4}

!0 = !{i32 1, !"wchar_size", i32 4}
!1 = !{i32 7, !"PIC Level", i32 2}
!2 = !{i32 7, !"PIE Level", i32 2}
!3 = !{i32 7, !"uwtable", i32 1}
!4 = !{!"clang version 13.0.0"}
!5 = !{!6, !6, i64 0}
!6 = !{!"int", !7, i64 0}
!7 = !{!"omnipotent char", !8, i64 0}
!8 = !{!"Simple C++ TBAA"}
!9 = distinct !{!9, !10, !11}
!10 = !{!"llvm.loop.mustprogress"}
!11 = !{!"llvm.loop.isvectorized", i32 1}
!12 = !{!13, !13, i64 0}
!13 = !{!"vtable pointer", !8, i64 0}
!14 = !{!15, !16, i64 240}
!15 = !{!"_ZTSSt9basic_iosIcSt11char_traitsIcEE", !16, i64 216, !7, i64 224, !17, i64 225, !16, i64 232, !16, i64 240, !16, i64 248, !16, i64 256}
!16 = !{!"any pointer", !7, i64 0}
!17 = !{!"bool", !7, i64 0}
!18 = !{!19, !7, i64 56}
!19 = !{!"_ZTSSt5ctypeIcE", !16, i64 16, !17, i64 24, !16, i64 32, !16, i64 40, !16, i64 48, !7, i64 56, !7, i64 57, !7, i64 313, !7, i64 569}
!20 = !{!7, !7, i64 0}
!21 = distinct !{!21, !10}
!22 = distinct !{!22, !10, !23, !11}
!23 = !{!"llvm.loop.unroll.runtime.disable"}
